target datalayout = "e-m:e-p270:32:32-p271:32:32-p272:64:64-i64:64-i128:128-f80:128-n8:16:32:64-S128"
target triple = "x86_64-pc-linux-gnu"

%struct.AVChannelLayout = type { i32, i32, %union.anon.1, ptr }
%union.anon.1 = type { i64 }
%struct.AC3DecodeContext = type { ptr, ptr, %struct.GetBitContext, %struct.BswapDSPContext, ptr, %struct.AC3DSPContext, %struct.FmtConvertContext, ptr, ptr, ptr, ptr, [7 x ptr], [7 x ptr], %struct.AVChannelLayout, [2 x ptr], i32, i32, i32, i32, i32, i32, i32, i32, i32, i32, i32, [2 x i32], [2 x i32], i32, i32, i32, i32, i32, i32, i32, i32, i32, i32, i32, i32, i32, i32, i32, float, float, float, float, i32, [2 x float], i32, i32, i32, i32, i32, i32, i32, [6 x i32], [6 x i32], [7 x i32], i32, [18 x i32], i32, [18 x i8], [18 x i8], i32, [7 x i32], [7 x [18 x i32]], i32, [7 x i8], [7 x i8], i32, i32, i32, i32, [17 x i8], [17 x i8], [7 x i8], [7 x [17 x float]], [7 x [17 x float]], [7 x i32], [7 x [256 x [6 x i32]]], i32, i32, i32, i32, i32, i32, i32, i32, [2 x float], float, i32, [2 x float], [7 x i32], [7 x i32], i32, i32, [4 x i32], [7 x i32], [7 x [256 x i8]], [6 x [7 x i32]], %struct.AC3BitAllocParameters, i32, [7 x i32], [7 x i32], [7 x [256 x i8]], [7 x [256 x i16]], [7 x [50 x i16]], [7 x [50 x i16]], [7 x i32], [7 x i32], [7 x [8 x i8]], [7 x [8 x i8]], [7 x [8 x i8]], [7 x i32], %struct.AVLFG, [7 x i32], [7 x ptr], [7 x [256 x i32]], [7 x [256 x float]], [16 x [256 x float]], [256 x float], [256 x float], [16 x [256 x float]], [32832 x i8], [16 x [1536 x float]] }
%struct.GetBitContext = type { ptr, ptr, i32, i32, i32 }
%struct.BswapDSPContext = type { ptr, ptr }
%struct.AC3DSPContext = type { ptr, ptr, ptr, ptr, ptr, ptr, ptr, ptr, i32, i32, ptr, ptr }
%struct.FmtConvertContext = type { ptr, ptr }
%struct.AC3BitAllocParameters = type { i32, i32, i32, i32, i32, i32, i32, i32, i32 }
%struct.AVLFG = type { [64 x i32], i32 }
%struct.AVFloatDSPContext = type { ptr, ptr, ptr, ptr, ptr, ptr, ptr, ptr, ptr, ptr, ptr, ptr }

; Function Attrs: inlinehint nounwind uwtable
define internal void @do_imdct(ptr noundef %0, i32 noundef %1, i32 noundef %2) #5 {
  %4 = alloca ptr, align 8
  %5 = alloca i32, align 4
  %6 = alloca i32, align 4
  %7 = alloca i32, align 4
  %8 = alloca i32, align 4
  %9 = alloca ptr, align 8
  store ptr %0, ptr %4, align 8, !tbaa !29
  store i32 %1, ptr %5, align 4, !tbaa !42
  store i32 %2, ptr %6, align 4, !tbaa !42
  call void @llvm.lifetime.start.p0(i64 4, ptr %7) #12
  store i32 1, ptr %7, align 4, !tbaa !42
  br label %10

10:                                               ; preds = %182, %3
  %11 = load i32, ptr %7, align 4, !tbaa !42
  %12 = load i32, ptr %5, align 4, !tbaa !42
  %13 = icmp sle i32 %11, %12
  br i1 %13, label %14, label %185

14:                                               ; preds = %10
  %15 = load ptr, ptr %4, align 8, !tbaa !29
  %16 = getelementptr inbounds nuw %struct.AC3DecodeContext, ptr %15, i32 0, i32 116
  %17 = load i32, ptr %7, align 4, !tbaa !42
  %18 = sext i32 %17 to i64
  %19 = getelementptr inbounds [7 x i32], ptr %16, i64 0, i64 %18
  %20 = load i32, ptr %19, align 4, !tbaa !42
  %21 = icmp ne i32 %20, 0
  br i1 %21, label %22, label %125

22:                                               ; preds = %14
  call void @llvm.lifetime.start.p0(i64 4, ptr %8) #12
  call void @llvm.lifetime.start.p0(i64 8, ptr %9) #12
  %23 = load ptr, ptr %4, align 8, !tbaa !29
  %24 = getelementptr inbounds nuw %struct.AC3DecodeContext, ptr %23, i32 0, i32 122
  %25 = getelementptr inbounds [256 x float], ptr %24, i64 0, i64 0
  %26 = getelementptr inbounds float, ptr %25, i64 128
  store ptr %26, ptr %9, align 8, !tbaa !47
  store i32 0, ptr %8, align 4, !tbaa !42
  br label %27

27:                                               ; preds = %45, %22
  %28 = load i32, ptr %8, align 4, !tbaa !42
  %29 = icmp slt i32 %28, 128
  br i1 %29, label %30, label %48

30:                                               ; preds = %27
  %31 = load ptr, ptr %4, align 8, !tbaa !29
  %32 = getelementptr inbounds nuw %struct.AC3DecodeContext, ptr %31, i32 0, i32 119
  %33 = load i32, ptr %7, align 4, !tbaa !42
  %34 = sext i32 %33 to i64
  %35 = getelementptr inbounds [7 x [256 x float]], ptr %32, i64 0, i64 %34
  %36 = load i32, ptr %8, align 4, !tbaa !42
  %37 = mul nsw i32 2, %36
  %38 = sext i32 %37 to i64
  %39 = getelementptr inbounds [256 x float], ptr %35, i64 0, i64 %38
  %40 = load float, ptr %39, align 4, !tbaa !31
  %41 = load ptr, ptr %9, align 8, !tbaa !47
  %42 = load i32, ptr %8, align 4, !tbaa !42
  %43 = sext i32 %42 to i64
  %44 = getelementptr inbounds float, ptr %41, i64 %43
  store float %40, ptr %44, align 4, !tbaa !31
  br label %45

45:                                               ; preds = %30
  %46 = load i32, ptr %8, align 4, !tbaa !42
  %47 = add nsw i32 %46, 1
  store i32 %47, ptr %8, align 4, !tbaa !42
  br label %27, !llvm.loop !278

48:                                               ; preds = %27
  %49 = load ptr, ptr %4, align 8, !tbaa !29
  %50 = getelementptr inbounds nuw %struct.AC3DecodeContext, ptr %49, i32 0, i32 9
  %51 = load ptr, ptr %50, align 16, !tbaa !279
  %52 = load ptr, ptr %4, align 8, !tbaa !29
  %53 = getelementptr inbounds nuw %struct.AC3DecodeContext, ptr %52, i32 0, i32 7
  %54 = load ptr, ptr %53, align 16, !tbaa !280
  %55 = load ptr, ptr %4, align 8, !tbaa !29
  %56 = getelementptr inbounds nuw %struct.AC3DecodeContext, ptr %55, i32 0, i32 122
  %57 = getelementptr inbounds [256 x float], ptr %56, i64 0, i64 0
  %58 = load ptr, ptr %9, align 8, !tbaa !47
  call void %51(ptr noundef %54, ptr noundef %57, ptr noundef %58, i64 noundef 4)
  %59 = load ptr, ptr %4, align 8, !tbaa !29
  %60 = getelementptr inbounds nuw %struct.AC3DecodeContext, ptr %59, i32 0, i32 4
  %61 = load ptr, ptr %60, align 16, !tbaa !44
  %62 = getelementptr inbounds nuw %struct.AVFloatDSPContext, ptr %61, i32 0, i32 5
  %63 = load ptr, ptr %62, align 8, !tbaa !281
  %64 = load ptr, ptr %4, align 8, !tbaa !29
  %65 = getelementptr inbounds nuw %struct.AC3DecodeContext, ptr %64, i32 0, i32 117
  %66 = load i32, ptr %7, align 4, !tbaa !42
  %67 = sub nsw i32 %66, 1
  %68 = sext i32 %67 to i64
  %69 = getelementptr inbounds [7 x ptr], ptr %65, i64 0, i64 %68
  %70 = load ptr, ptr %69, align 8, !tbaa !47
  %71 = load ptr, ptr %4, align 8, !tbaa !29
  %72 = getelementptr inbounds nuw %struct.AC3DecodeContext, ptr %71, i32 0, i32 120
  %73 = load i32, ptr %7, align 4, !tbaa !42
  %74 = sub nsw i32 %73, 1
  %75 = load i32, ptr %6, align 4, !tbaa !42
  %76 = add nsw i32 %74, %75
  %77 = sext i32 %76 to i64
  %78 = getelementptr inbounds [16 x [256 x float]], ptr %72, i64 0, i64 %77
  %79 = getelementptr inbounds [256 x float], ptr %78, i64 0, i64 0
  %80 = load ptr, ptr %4, align 8, !tbaa !29
  %81 = getelementptr inbounds nuw %struct.AC3DecodeContext, ptr %80, i32 0, i32 122
  %82 = getelementptr inbounds [256 x float], ptr %81, i64 0, i64 0
  %83 = load ptr, ptr %4, align 8, !tbaa !29
  %84 = getelementptr inbounds nuw %struct.AC3DecodeContext, ptr %83, i32 0, i32 121
  %85 = getelementptr inbounds [256 x float], ptr %84, i64 0, i64 0
  call void %63(ptr noundef %70, ptr noundef %79, ptr noundef %82, ptr noundef %85, i32 noundef 128)
  store i32 0, ptr %8, align 4, !tbaa !42
  br label %86

86:                                               ; preds = %105, %48
  %87 = load i32, ptr %8, align 4, !tbaa !42
  %88 = icmp slt i32 %87, 128
  br i1 %88, label %89, label %108

89:                                               ; preds = %86
  %90 = load ptr, ptr %4, align 8, !tbaa !29
  %91 = getelementptr inbounds nuw %struct.AC3DecodeContext, ptr %90, i32 0, i32 119
  %92 = load i32, ptr %7, align 4, !tbaa !42
  %93 = sext i32 %92 to i64
  %94 = getelementptr inbounds [7 x [256 x float]], ptr %91, i64 0, i64 %93
  %95 = load i32, ptr %8, align 4, !tbaa !42
  %96 = mul nsw i32 2, %95
  %97 = add nsw i32 %96, 1
  %98 = sext i32 %97 to i64
  %99 = getelementptr inbounds [256 x float], ptr %94, i64 0, i64 %98
  %100 = load float, ptr %99, align 4, !tbaa !31
  %101 = load ptr, ptr %9, align 8, !tbaa !47
  %102 = load i32, ptr %8, align 4, !tbaa !42
  %103 = sext i32 %102 to i64
  %104 = getelementptr inbounds float, ptr %101, i64 %103
  store float %100, ptr %104, align 4, !tbaa !31
  br label %105

105:                                              ; preds = %89
  %106 = load i32, ptr %8, align 4, !tbaa !42
  %107 = add nsw i32 %106, 1
  store i32 %107, ptr %8, align 4, !tbaa !42
  br label %86, !llvm.loop !283

108:                                              ; preds = %86
  %109 = load ptr, ptr %4, align 8, !tbaa !29
  %110 = getelementptr inbounds nuw %struct.AC3DecodeContext, ptr %109, i32 0, i32 9
  %111 = load ptr, ptr %110, align 16, !tbaa !279
  %112 = load ptr, ptr %4, align 8, !tbaa !29
  %113 = getelementptr inbounds nuw %struct.AC3DecodeContext, ptr %112, i32 0, i32 7
  %114 = load ptr, ptr %113, align 16, !tbaa !280
  %115 = load ptr, ptr %4, align 8, !tbaa !29
  %116 = getelementptr inbounds nuw %struct.AC3DecodeContext, ptr %115, i32 0, i32 120
  %117 = load i32, ptr %7, align 4, !tbaa !42
  %118 = sub nsw i32 %117, 1
  %119 = load i32, ptr %6, align 4, !tbaa !42
  %120 = add nsw i32 %118, %119
  %121 = sext i32 %120 to i64
  %122 = getelementptr inbounds [16 x [256 x float]], ptr %116, i64 0, i64 %121
  %123 = getelementptr inbounds [256 x float], ptr %122, i64 0, i64 0
  %124 = load ptr, ptr %9, align 8, !tbaa !47
  call void %111(ptr noundef %114, ptr noundef %123, ptr noundef %124, i64 noundef 4)
  call void @llvm.lifetime.end.p0(i64 8, ptr %9) #12
  call void @llvm.lifetime.end.p0(i64 4, ptr %8) #12
  br label %181

125:                                              ; preds = %14
  %126 = load ptr, ptr %4, align 8, !tbaa !29
  %127 = getelementptr inbounds nuw %struct.AC3DecodeContext, ptr %126, i32 0, i32 10
  %128 = load ptr, ptr %127, align 8, !tbaa !284
  %129 = load ptr, ptr %4, align 8, !tbaa !29
  %130 = getelementptr inbounds nuw %struct.AC3DecodeContext, ptr %129, i32 0, i32 8
  %131 = load ptr, ptr %130, align 8, !tbaa !285
  %132 = load ptr, ptr %4, align 8, !tbaa !29
  %133 = getelementptr inbounds nuw %struct.AC3DecodeContext, ptr %132, i32 0, i32 122
  %134 = getelementptr inbounds [256 x float], ptr %133, i64 0, i64 0
  %135 = load ptr, ptr %4, align 8, !tbaa !29
  %136 = getelementptr inbounds nuw %struct.AC3DecodeContext, ptr %135, i32 0, i32 119
  %137 = load i32, ptr %7, align 4, !tbaa !42
  %138 = sext i32 %137 to i64
  %139 = getelementptr inbounds [7 x [256 x float]], ptr %136, i64 0, i64 %138
  %140 = getelementptr inbounds [256 x float], ptr %139, i64 0, i64 0
  call void %128(ptr noundef %131, ptr noundef %134, ptr noundef %140, i64 noundef 4)
  %141 = load ptr, ptr %4, align 8, !tbaa !29
  %142 = getelementptr inbounds nuw %struct.AC3DecodeContext, ptr %141, i32 0, i32 4
  %143 = load ptr, ptr %142, align 16, !tbaa !44
  %144 = getelementptr inbounds nuw %struct.AVFloatDSPContext, ptr %143, i32 0, i32 5
  %145 = load ptr, ptr %144, align 8, !tbaa !281
  %146 = load ptr, ptr %4, align 8, !tbaa !29
  %147 = getelementptr inbounds nuw %struct.AC3DecodeContext, ptr %146, i32 0, i32 117
  %148 = load i32, ptr %7, align 4, !tbaa !42
  %149 = sub nsw i32 %148, 1
  %150 = sext i32 %149 to i64
  %151 = getelementptr inbounds [7 x ptr], ptr %147, i64 0, i64 %150
  %152 = load ptr, ptr %151, align 8, !tbaa !47
  %153 = load ptr, ptr %4, align 8, !tbaa !29
  %154 = getelementptr inbounds nuw %struct.AC3DecodeContext, ptr %153, i32 0, i32 120
  %155 = load i32, ptr %7, align 4, !tbaa !42
  %156 = sub nsw i32 %155, 1
  %157 = load i32, ptr %6, align 4, !tbaa !42
  %158 = add nsw i32 %156, %157
  %159 = sext i32 %158 to i64
  %160 = getelementptr inbounds [16 x [256 x float]], ptr %154, i64 0, i64 %159
  %161 = getelementptr inbounds [256 x float], ptr %160, i64 0, i64 0
  %162 = load ptr, ptr %4, align 8, !tbaa !29
  %163 = getelementptr inbounds nuw %struct.AC3DecodeContext, ptr %162, i32 0, i32 122
  %164 = getelementptr inbounds [256 x float], ptr %163, i64 0, i64 0
  %165 = load ptr, ptr %4, align 8, !tbaa !29
  %166 = getelementptr inbounds nuw %struct.AC3DecodeContext, ptr %165, i32 0, i32 121
  %167 = getelementptr inbounds [256 x float], ptr %166, i64 0, i64 0
  call void %145(ptr noundef %152, ptr noundef %161, ptr noundef %164, ptr noundef %167, i32 noundef 128)
  %168 = load ptr, ptr %4, align 8, !tbaa !29
  %169 = getelementptr inbounds nuw %struct.AC3DecodeContext, ptr %168, i32 0, i32 120
  %170 = load i32, ptr %7, align 4, !tbaa !42
  %171 = sub nsw i32 %170, 1
  %172 = load i32, ptr %6, align 4, !tbaa !42
  %173 = add nsw i32 %171, %172
  %174 = sext i32 %173 to i64
  %175 = getelementptr inbounds [16 x [256 x float]], ptr %169, i64 0, i64 %174
  %176 = getelementptr inbounds [256 x float], ptr %175, i64 0, i64 0
  %177 = load ptr, ptr %4, align 8, !tbaa !29
  %178 = getelementptr inbounds nuw %struct.AC3DecodeContext, ptr %177, i32 0, i32 122
  %179 = getelementptr inbounds [256 x float], ptr %178, i64 0, i64 0
  %180 = getelementptr inbounds float, ptr %179, i64 128
  call void @llvm.memcpy.p0.p0.i64(ptr align 16 %176, ptr align 4 %180, i64 512, i1 false)
  br label %181

181:                                              ; preds = %125, %108
  br label %182

182:                                              ; preds = %181
  %183 = load i32, ptr %7, align 4, !tbaa !42
  %184 = add nsw i32 %183, 1
  store i32 %184, ptr %7, align 4, !tbaa !42
  br label %10, !llvm.loop !286

185:                                              ; preds = %10
  call void @llvm.lifetime.end.p0(i64 4, ptr %7) #12
  ret void
}