; Function Attrs: inlinehint nounwind uwtable
define internal fastcc void @do_imdct(ptr noundef %0, i32 noundef %1, i32 noundef range(i32 0, 8) %2) unnamed_addr #10 {
  %.not60 = icmp slt i32 %1, 1
  br i1 %.not60, label %._crit_edge, label %.lr.ph

.lr.ph:                                           ; preds = %3
  %invariant.op = add nsw i32 %2, -1
  %4 = getelementptr inbounds nuw i8, ptr %0, i64 54840
  %5 = getelementptr inbounds nuw i8, ptr %0, i64 86672
  %6 = getelementptr inbounds nuw i8, ptr %0, i64 87184
  %7 = getelementptr inbounds nuw i8, ptr %0, i64 62096
  %8 = getelementptr inbounds nuw i8, ptr %0, i64 192
  %9 = getelementptr inbounds nuw i8, ptr %0, i64 176
  %10 = getelementptr inbounds nuw i8, ptr %0, i64 64
  %11 = getelementptr inbounds nuw i8, ptr %0, i64 54872
  %12 = getelementptr inbounds nuw i8, ptr %0, i64 69264
  %13 = getelementptr inbounds nuw i8, ptr %0, i64 85648
  %14 = getelementptr inbounds nuw i8, ptr %0, i64 200
  %15 = getelementptr inbounds nuw i8, ptr %0, i64 184
  %16 = add nuw i32 %1, 1
  %wide.trip.count = zext i32 %16 to i64
  br label %17

17:                                               ; preds = %.lr.ph, %60
  %indvars.iv67 = phi i64 [ 1, %.lr.ph ], [ %indvars.iv.next68, %60 ]
  %18 = getelementptr inbounds nuw [7 x i32], ptr %4, i64 0, i64 %indvars.iv67
  %19 = load i32, ptr %18, align 4, !tbaa !43
  %.not55 = icmp eq i32 %19, 0
  br i1 %.not55, label %46, label %.preheader

.preheader:                                       ; preds = %17, %.preheader
  %indvars.iv = phi i64 [ %indvars.iv.next, %.preheader ], [ 0, %17 ]
  %20 = shl nuw nsw i64 %indvars.iv, 1
  %21 = getelementptr inbounds nuw [7 x [256 x float]], ptr %7, i64 0, i64 %indvars.iv67, i64 %20
  %22 = load float, ptr %21, align 4, !tbaa !27
  %23 = getelementptr inbounds nuw float, ptr %6, i64 %indvars.iv
  store float %22, ptr %23, align 4, !tbaa !27
  %indvars.iv.next = add nuw nsw i64 %indvars.iv, 1
  %exitcond.not = icmp eq i64 %indvars.iv.next, 128
  br i1 %exitcond.not, label %24, label %.preheader, !llvm.loop !270

24:                                               ; preds = %.preheader
  %25 = load ptr, ptr %8, align 16, !tbaa !271
  %26 = load ptr, ptr %9, align 16, !tbaa !272
  tail call void %25(ptr noundef %26, ptr noundef nonnull %5, ptr noundef nonnull %6, i64 noundef 4) #12
  %27 = load ptr, ptr %10, align 16, !tbaa !40
  %28 = getelementptr inbounds nuw i8, ptr %27, i64 40
  %29 = load ptr, ptr %28, align 8, !tbaa !273
  %30 = add nsw i64 %indvars.iv67, -1
  %31 = getelementptr inbounds [7 x ptr], ptr %11, i64 0, i64 %30
  %32 = load ptr, ptr %31, align 8, !tbaa !47
  %33 = trunc i64 %indvars.iv67 to i32
  %34 = add i32 %invariant.op, %33
  %35 = sext i32 %34 to i64
  %36 = getelementptr inbounds [16 x [256 x float]], ptr %12, i64 0, i64 %35
  tail call void %29(ptr noundef %32, ptr noundef nonnull %36, ptr noundef nonnull %5, ptr noundef nonnull %13, i32 noundef 128) #12
  br label %37

37:                                               ; preds = %24, %37
  %indvars.iv63 = phi i64 [ 0, %24 ], [ %indvars.iv.next64, %37 ]
  %38 = shl nuw nsw i64 %indvars.iv63, 1
  %39 = or disjoint i64 %38, 1
  %40 = getelementptr inbounds nuw [7 x [256 x float]], ptr %7, i64 0, i64 %indvars.iv67, i64 %39
  %41 = load float, ptr %40, align 4, !tbaa !27
  %42 = getelementptr inbounds nuw float, ptr %6, i64 %indvars.iv63
  store float %41, ptr %42, align 4, !tbaa !27
  %indvars.iv.next64 = add nuw nsw i64 %indvars.iv63, 1
  %exitcond66.not = icmp eq i64 %indvars.iv.next64, 128
  br i1 %exitcond66.not, label %43, label %37, !llvm.loop !275

43:                                               ; preds = %37
  %44 = load ptr, ptr %8, align 16, !tbaa !271
  %45 = load ptr, ptr %9, align 16, !tbaa !272
  tail call void %44(ptr noundef %45, ptr noundef nonnull %36, ptr noundef nonnull %6, i64 noundef 4) #12
  br label %60

46:                                               ; preds = %17
  %47 = load ptr, ptr %14, align 8, !tbaa !276
  %48 = load ptr, ptr %15, align 8, !tbaa !277
  %49 = getelementptr inbounds nuw [7 x [256 x float]], ptr %7, i64 0, i64 %indvars.iv67
  tail call void %47(ptr noundef %48, ptr noundef nonnull %5, ptr noundef nonnull %49, i64 noundef 4) #12
  %50 = load ptr, ptr %10, align 16, !tbaa !40
  %51 = getelementptr inbounds nuw i8, ptr %50, i64 40
  %52 = load ptr, ptr %51, align 8, !tbaa !273
  %53 = add nsw i64 %indvars.iv67, -1
  %54 = getelementptr inbounds [7 x ptr], ptr %11, i64 0, i64 %53
  %55 = load ptr, ptr %54, align 8, !tbaa !47
  %56 = trunc i64 %indvars.iv67 to i32
  %57 = add i32 %invariant.op, %56
  %58 = sext i32 %57 to i64
  %59 = getelementptr inbounds [16 x [256 x float]], ptr %12, i64 0, i64 %58
  tail call void %52(ptr noundef %55, ptr noundef nonnull %59, ptr noundef nonnull %5, ptr noundef nonnull %13, i32 noundef 128) #12
  tail call void @llvm.memcpy.p0.p0.i64(ptr noundef nonnull align 16 dereferenceable(512) %59, ptr noundef nonnull align 4 dereferenceable(512) %6, i64 512, i1 false)
  br label %60

60:                                               ; preds = %43, %46
  %indvars.iv.next68 = add nuw nsw i64 %indvars.iv67, 1
  %exitcond72.not = icmp eq i64 %indvars.iv.next68, %wide.trip.count
  br i1 %exitcond72.not, label %._crit_edge, label %17, !llvm.loop !278

._crit_edge:                                      ; preds = %60, %3
  ret void
}